; Function Attrs: mustprogress nofree norecurse nosync nounwind willreturn memory(argmem: write) uwtable
define hidden noundef zeroext i1 @_mi_allocator_init(ptr noundef writeonly captures(address_is_null) %0) local_unnamed_addr #8 {
  %.not = icmp eq ptr %0, null
  br i1 %.not, label %3, label %2

2:                                                ; preds = %1
  store ptr null, ptr %0, align 8, !tbaa !40
  br label %3

3:                                                ; preds = %2, %1
  ret i1 true
}